; Function Attrs: nounwind sspstrong uwtable
define internal i64 @ossl_ocspres_s_create(i64 noundef %0, i64 noundef %1, i64 noundef %2) #0 {
  %4 = and i64 %1, 1
  %.not.i = icmp eq i64 %4, 0
  br i1 %.not.i, label %7, label %5

5:                                                ; preds = %3
  %6 = tail call i64 @rb_fix2int(i64 noundef %1) #5
  br label %rb_num2int_inline.exit

7:                                                ; preds = %3
  %8 = tail call i64 @rb_num2int(i64 noundef %1) #5
  br label %rb_num2int_inline.exit

rb_num2int_inline.exit:                           ; preds = %5, %7
  %.0.i = phi i64 [ %6, %5 ], [ %8, %7 ]
  %9 = trunc i64 %.0.i to i32
  %10 = icmp eq i64 %2, 4
  br i1 %10, label %15, label %11

11:                                               ; preds = %rb_num2int_inline.exit
  %12 = tail call ptr @rb_check_typeddata(i64 noundef %2, ptr noundef nonnull @ossl_ocsp_basicresp_type) #5
  %.not = icmp eq ptr %12, null
  br i1 %.not, label %13, label %15

13:                                               ; preds = %11
  %14 = load i64, ptr @rb_eRuntimeError, align 8, !tbaa !6
  tail call void (i64, ptr, ...) @ossl_raise(i64 noundef %14, ptr noundef nonnull @.str.75) #6
  unreachable

15:                                               ; preds = %rb_num2int_inline.exit, %11
  %.0 = phi ptr [ %12, %11 ], [ null, %rb_num2int_inline.exit ]
  %16 = tail call i64 @rb_data_typed_object_wrap(i64 noundef %0, ptr noundef null, ptr noundef nonnull @ossl_ocsp_response_type) #5
  %17 = tail call ptr @OCSP_response_create(i32 noundef %9, ptr noundef %.0) #5
  %.not12 = icmp eq ptr %17, null
  br i1 %.not12, label %18, label %20

18:                                               ; preds = %15
  %19 = load i64, ptr @eOCSPError, align 8, !tbaa !6
  tail call void (i64, ptr, ...) @ossl_raise(i64 noundef %19, ptr noundef null) #6
  unreachable

20:                                               ; preds = %15
  %21 = inttoptr i64 %16 to ptr
  %22 = getelementptr inbounds nuw i8, ptr %21, i64 32
  store ptr %17, ptr %22, align 8, !tbaa !10
  ret i64 %16
}